target datalayout = "e-m:e-p270:32:32-p271:32:32-p272:64:64-i64:64-i128:128-f80:128-n8:16:32:64-S128"
target triple = "x86_64-pc-linux-gnu"

%struct._cmsStage_struct = type { ptr, i32, i32, i32, i32, ptr, ptr, ptr, ptr, ptr }
%struct._cmsPipeline_struct = type { ptr, i32, i32, ptr, ptr, ptr, ptr, ptr, ptr, i32 }

; Function Attrs: nounwind uwtable
define hidden ptr @cmsPipelineGetPtrToLastStage(ptr noundef %0) #0 {
  %2 = alloca ptr, align 8
  %3 = alloca ptr, align 8
  %4 = alloca ptr, align 8
  store ptr %0, ptr %2, align 8
  store ptr null, ptr %4, align 8
  %5 = load ptr, ptr %2, align 8
  %6 = getelementptr inbounds %struct._cmsPipeline_struct, ptr %5, i32 0, i32 0
  %7 = load ptr, ptr %6, align 8
  store ptr %7, ptr %3, align 8
  br label %8

8:                                                ; preds = %13, %1
  %9 = load ptr, ptr %3, align 8
  %10 = icmp ne ptr %9, null
  br i1 %10, label %11, label %17

11:                                               ; preds = %8
  %12 = load ptr, ptr %3, align 8
  store ptr %12, ptr %4, align 8
  br label %13

13:                                               ; preds = %11
  %14 = load ptr, ptr %3, align 8
  %15 = getelementptr inbounds %struct._cmsStage_struct, ptr %14, i32 0, i32 9
  %16 = load ptr, ptr %15, align 8
  store ptr %16, ptr %3, align 8
  br label %8, !llvm.loop !49

17:                                               ; preds = %8
  %18 = load ptr, ptr %4, align 8
  ret ptr %18
}

; Function Attrs: nounwind uwtable
define hidden ptr @cmsPipelineGetPtrToFirstStage(ptr noundef %0) #0 {
  %2 = alloca ptr, align 8
  store ptr %0, ptr %2, align 8
  %3 = load ptr, ptr %2, align 8
  %4 = getelementptr inbounds %struct._cmsPipeline_struct, ptr %3, i32 0, i32 0
  %5 = load ptr, ptr %4, align 8
  ret ptr %5
}

; Function Attrs: nounwind uwtable
define internal i32 @BlessLUT(ptr noundef %0) #0 {
  %2 = alloca i32, align 4
  %3 = alloca ptr, align 8
  %4 = alloca ptr, align 8
  %5 = alloca ptr, align 8
  %6 = alloca ptr, align 8
  %7 = alloca ptr, align 8
  store ptr %0, ptr %3, align 8
  %8 = load ptr, ptr %3, align 8
  %9 = getelementptr inbounds %struct._cmsPipeline_struct, ptr %8, i32 0, i32 0
  %10 = load ptr, ptr %9, align 8
  %11 = icmp ne ptr %10, null
  br i1 %11, label %12, label %58

12:                                               ; preds = %1
  %13 = load ptr, ptr %3, align 8
  %14 = call ptr @cmsPipelineGetPtrToFirstStage(ptr noundef %13)
  store ptr %14, ptr %6, align 8
  %15 = load ptr, ptr %3, align 8
  %16 = call ptr @cmsPipelineGetPtrToLastStage(ptr noundef %15)
  store ptr %16, ptr %7, align 8
  %17 = load ptr, ptr %6, align 8
  %18 = icmp eq ptr %17, null
  br i1 %18, label %22, label %19

19:                                               ; preds = %12
  %20 = load ptr, ptr %7, align 8
  %21 = icmp eq ptr %20, null
  br i1 %21, label %22, label %23

22:                                               ; preds = %19, %12
  store i32 0, ptr %2, align 4
  br label %59

23:                                               ; preds = %19
  %24 = load ptr, ptr %6, align 8
  %25 = getelementptr inbounds %struct._cmsStage_struct, ptr %24, i32 0, i32 3
  %26 = load i32, ptr %25, align 8
  %27 = load ptr, ptr %3, align 8
  %28 = getelementptr inbounds %struct._cmsPipeline_struct, ptr %27, i32 0, i32 1
  store i32 %26, ptr %28, align 8
  %29 = load ptr, ptr %7, align 8
  %30 = getelementptr inbounds %struct._cmsStage_struct, ptr %29, i32 0, i32 4
  %31 = load i32, ptr %30, align 4
  %32 = load ptr, ptr %3, align 8
  %33 = getelementptr inbounds %struct._cmsPipeline_struct, ptr %32, i32 0, i32 2
  store i32 %31, ptr %33, align 4
  %34 = load ptr, ptr %6, align 8
  store ptr %34, ptr %4, align 8
  %35 = load ptr, ptr %4, align 8
  %36 = getelementptr inbounds %struct._cmsStage_struct, ptr %35, i32 0, i32 9
  %37 = load ptr, ptr %36, align 8
  store ptr %37, ptr %5, align 8
  br label %38

38:                                               ; preds = %50, %23
  %39 = load ptr, ptr %5, align 8
  %40 = icmp ne ptr %39, null
  br i1 %40, label %41, label %57

41:                                               ; preds = %38
  %42 = load ptr, ptr %5, align 8
  %43 = getelementptr inbounds %struct._cmsStage_struct, ptr %42, i32 0, i32 3
  %44 = load i32, ptr %43, align 8
  %45 = load ptr, ptr %4, align 8
  %46 = getelementptr inbounds %struct._cmsStage_struct, ptr %45, i32 0, i32 4
  %47 = load i32, ptr %46, align 4
  %48 = icmp ne i32 %44, %47
  br i1 %48, label %49, label %50

49:                                               ; preds = %41
  store i32 0, ptr %2, align 4
  br label %59

50:                                               ; preds = %41
  %51 = load ptr, ptr %5, align 8
  %52 = getelementptr inbounds %struct._cmsStage_struct, ptr %51, i32 0, i32 9
  %53 = load ptr, ptr %52, align 8
  store ptr %53, ptr %5, align 8
  %54 = load ptr, ptr %4, align 8
  %55 = getelementptr inbounds %struct._cmsStage_struct, ptr %54, i32 0, i32 9
  %56 = load ptr, ptr %55, align 8
  store ptr %56, ptr %4, align 8
  br label %38, !llvm.loop !43

57:                                               ; preds = %38
  br label %58

58:                                               ; preds = %57, %1
  store i32 1, ptr %2, align 4
  br label %59

59:                                               ; preds = %58, %49, %22
  %60 = load i32, ptr %2, align 4
  ret i32 %60
}

; Function Attrs: nounwind uwtable
define hidden ptr @cmsPipelineAlloc(ptr noundef %0, i32 noundef %1, i32 noundef %2) #0 {
  %4 = alloca ptr, align 8
  %5 = alloca ptr, align 8
  %6 = alloca i32, align 4
  %7 = alloca i32, align 4
  %8 = alloca ptr, align 8
  store ptr %0, ptr %5, align 8
  store i32 %1, ptr %6, align 4
  store i32 %2, ptr %7, align 4
  %9 = load i32, ptr %6, align 4
  %10 = icmp uge i32 %9, 16
  br i1 %10, label %14, label %11

11:                                               ; preds = %3
  %12 = load i32, ptr %7, align 4
  %13 = icmp uge i32 %12, 16
  br i1 %13, label %14, label %15

14:                                               ; preds = %11, %3
  store ptr null, ptr %4, align 8
  br label %50

15:                                               ; preds = %11
  %16 = load ptr, ptr %5, align 8
  %17 = call ptr @_cmsMallocZero(ptr noundef %16, i32 noundef 72)
  store ptr %17, ptr %8, align 8
  %18 = load ptr, ptr %8, align 8
  %19 = icmp eq ptr %18, null
  br i1 %19, label %20, label %21

20:                                               ; preds = %15
  store ptr null, ptr %4, align 8
  br label %50

21:                                               ; preds = %15
  %22 = load i32, ptr %6, align 4
  %23 = load ptr, ptr %8, align 8
  %24 = getelementptr inbounds %struct._cmsPipeline_struct, ptr %23, i32 0, i32 1
  store i32 %22, ptr %24, align 8
  %25 = load i32, ptr %7, align 4
  %26 = load ptr, ptr %8, align 8
  %27 = getelementptr inbounds %struct._cmsPipeline_struct, ptr %26, i32 0, i32 2
  store i32 %25, ptr %27, align 4
  %28 = load ptr, ptr %8, align 8
  %29 = getelementptr inbounds %struct._cmsPipeline_struct, ptr %28, i32 0, i32 4
  store ptr @_LUTeval16, ptr %29, align 8
  %30 = load ptr, ptr %8, align 8
  %31 = getelementptr inbounds %struct._cmsPipeline_struct, ptr %30, i32 0, i32 5
  store ptr @_LUTevalFloat, ptr %31, align 8
  %32 = load ptr, ptr %8, align 8
  %33 = getelementptr inbounds %struct._cmsPipeline_struct, ptr %32, i32 0, i32 7
  store ptr null, ptr %33, align 8
  %34 = load ptr, ptr %8, align 8
  %35 = getelementptr inbounds %struct._cmsPipeline_struct, ptr %34, i32 0, i32 6
  store ptr null, ptr %35, align 8
  %36 = load ptr, ptr %8, align 8
  %37 = load ptr, ptr %8, align 8
  %38 = getelementptr inbounds %struct._cmsPipeline_struct, ptr %37, i32 0, i32 3
  store ptr %36, ptr %38, align 8
  %39 = load ptr, ptr %5, align 8
  %40 = load ptr, ptr %8, align 8
  %41 = getelementptr inbounds %struct._cmsPipeline_struct, ptr %40, i32 0, i32 8
  store ptr %39, ptr %41, align 8
  %42 = load ptr, ptr %8, align 8
  %43 = call i32 @BlessLUT(ptr noundef %42)
  %44 = icmp ne i32 %43, 0
  br i1 %44, label %48, label %45

45:                                               ; preds = %21
  %46 = load ptr, ptr %5, align 8
  %47 = load ptr, ptr %8, align 8
  call void @_cmsFree(ptr noundef %46, ptr noundef %47)
  store ptr null, ptr %4, align 8
  br label %50

48:                                               ; preds = %21
  %49 = load ptr, ptr %8, align 8
  store ptr %49, ptr %4, align 8
  br label %50

50:                                               ; preds = %48, %45, %20, %14
  %51 = load ptr, ptr %4, align 8
  ret ptr %51
}