; Function Attrs: nounwind uwtable
define hidden ptr @cmsPipelineAlloc(ptr noundef %0, i32 noundef %1, i32 noundef %2) local_unnamed_addr #0 {
  %4 = or i32 %2, %1
  %or.cond.not = icmp ult i32 %4, 16
  br i1 %or.cond.not, label %5, label %BlessLUT.exit.thread

5:                                                ; preds = %3
  %6 = tail call ptr @_cmsMallocZero(ptr noundef %0, i32 noundef 72) #18
  %7 = icmp eq ptr %6, null
  br i1 %7, label %BlessLUT.exit.thread, label %8

8:                                                ; preds = %5
  %9 = getelementptr inbounds i8, ptr %6, i64 8
  store i32 %1, ptr %9, align 8
  %10 = getelementptr inbounds i8, ptr %6, i64 12
  store i32 %2, ptr %10, align 4
  %11 = getelementptr inbounds i8, ptr %6, i64 24
  store ptr @_LUTeval16, ptr %11, align 8
  %12 = getelementptr inbounds i8, ptr %6, i64 32
  store ptr @_LUTevalFloat, ptr %12, align 8
  %13 = getelementptr inbounds i8, ptr %6, i64 40
  %14 = getelementptr inbounds i8, ptr %6, i64 16
  tail call void @llvm.memset.p0.i64(ptr noundef nonnull align 8 dereferenceable(16) %13, i8 0, i64 16, i1 false)
  store ptr %6, ptr %14, align 8
  %15 = getelementptr inbounds i8, ptr %6, i64 56
  store ptr %0, ptr %15, align 8
  %16 = load ptr, ptr %6, align 8
  %.not.i = icmp eq ptr %16, null
  br i1 %.not.i, label %BlessLUT.exit.thread, label %thread-pre-split.i

thread-pre-split.i:                               ; preds = %8, %thread-pre-split.i
  %.05.i23.i = phi ptr [ %.05.i.pr.i, %thread-pre-split.i ], [ %16, %8 ]
  %17 = getelementptr inbounds i8, ptr %.05.i23.i, i64 56
  %.05.i.pr.i = load ptr, ptr %17, align 8
  %.not.i.i = icmp eq ptr %.05.i.pr.i, null
  br i1 %.not.i.i, label %cmsPipelineGetPtrToLastStage.exit.i, label %thread-pre-split.i, !llvm.loop !43

cmsPipelineGetPtrToLastStage.exit.i:              ; preds = %thread-pre-split.i
  %18 = getelementptr inbounds i8, ptr %16, i64 16
  %19 = load i32, ptr %18, align 8
  store i32 %19, ptr %9, align 8
  %20 = getelementptr inbounds i8, ptr %.05.i23.i, i64 20
  %21 = load i32, ptr %20, align 4
  store i32 %21, ptr %10, align 4
  %.018.in24.i = getelementptr inbounds i8, ptr %16, i64 56
  %.01825.i = load ptr, ptr %.018.in24.i, align 8
  %.not2126.i = icmp eq ptr %.01825.i, null
  br i1 %.not2126.i, label %BlessLUT.exit.thread, label %.lr.ph.i

.lr.ph.i:                                         ; preds = %cmsPipelineGetPtrToLastStage.exit.i, %26
  %.01828.i = phi ptr [ %.018.i, %26 ], [ %.01825.i, %cmsPipelineGetPtrToLastStage.exit.i ]
  %.01727.i = phi ptr [ %28, %26 ], [ %16, %cmsPipelineGetPtrToLastStage.exit.i ]
  %22 = getelementptr inbounds i8, ptr %.01828.i, i64 16
  %23 = load i32, ptr %22, align 8
  %24 = getelementptr inbounds i8, ptr %.01727.i, i64 20
  %25 = load i32, ptr %24, align 4
  %.not22.i = icmp eq i32 %23, %25
  br i1 %.not22.i, label %26, label %BlessLUT.exit

26:                                               ; preds = %.lr.ph.i
  %27 = getelementptr inbounds i8, ptr %.01727.i, i64 56
  %28 = load ptr, ptr %27, align 8
  %.018.in.i = getelementptr inbounds i8, ptr %.01828.i, i64 56
  %.018.i = load ptr, ptr %.018.in.i, align 8
  %.not21.i = icmp eq ptr %.018.i, null
  br i1 %.not21.i, label %BlessLUT.exit.thread, label %.lr.ph.i, !llvm.loop !44

BlessLUT.exit:                                    ; preds = %.lr.ph.i
  tail call void @_cmsFree(ptr noundef %0, ptr noundef nonnull %6) #18
  br label %BlessLUT.exit.thread

BlessLUT.exit.thread:                             ; preds = %26, %cmsPipelineGetPtrToLastStage.exit.i, %8, %5, %3, %BlessLUT.exit
  %.0 = phi ptr [ null, %BlessLUT.exit ], [ null, %3 ], [ null, %5 ], [ %6, %8 ], [ %6, %cmsPipelineGetPtrToLastStage.exit.i ], [ %6, %26 ]
  ret ptr %.0
}